target datalayout = "e-m:e-p270:32:32-p271:32:32-p272:64:64-i64:64-i128:128-f80:128-n8:16:32:64-S128"
target triple = "x86_64-pc-linux-gnu"

%"class.google::protobuf::strings::ByteSink" = type { ptr }
%"class.google::protobuf::strings::GrowingArrayByteSink" = type { %"class.google::protobuf::strings::ByteSink", i64, ptr, i64 }

; Function Attrs: inlinehint mustprogress nounwind uwtable
define linkonce_odr noundef nonnull align 8 dereferenceable(8) ptr @_ZSt3maxImERKT_S2_S2_(ptr noundef nonnull align 8 dereferenceable(8) %0, ptr noundef nonnull align 8 dereferenceable(8) %1) #7 comdat {
  %3 = alloca ptr, align 8
  %4 = alloca ptr, align 8
  %5 = alloca ptr, align 8
  store ptr %0, ptr %4, align 8, !tbaa !21
  store ptr %1, ptr %5, align 8, !tbaa !21
  %6 = load ptr, ptr %4, align 8, !tbaa !21
  %7 = load i64, ptr %6, align 8, !tbaa !10
  %8 = load ptr, ptr %5, align 8, !tbaa !21
  %9 = load i64, ptr %8, align 8, !tbaa !10
  %10 = icmp ult i64 %7, %9
  br i1 %10, label %11, label %13

11:                                               ; preds = %2
  %12 = load ptr, ptr %5, align 8, !tbaa !21
  store ptr %12, ptr %3, align 8
  br label %15

13:                                               ; preds = %2
  %14 = load ptr, ptr %4, align 8, !tbaa !21
  store ptr %14, ptr %3, align 8
  br label %15

15:                                               ; preds = %13, %11
  %16 = load ptr, ptr %3, align 8
  ret ptr %16
}

; Function Attrs: mustprogress uwtable
define hidden void @_ZN6google8protobuf7strings20GrowingArrayByteSink6ExpandEm(ptr noundef nonnull align 8 dereferenceable(32) %0, i64 noundef %1) #4 align 2 {
  %3 = alloca ptr, align 8
  %4 = alloca i64, align 8
  %5 = alloca i64, align 8
  %6 = alloca i64, align 8
  %7 = alloca i64, align 8
  %8 = alloca ptr, align 8
  store ptr %0, ptr %3, align 8, !tbaa !40
  store i64 %1, ptr %4, align 8, !tbaa !10
  %9 = load ptr, ptr %3, align 8
  call void @llvm.lifetime.start.p0(i64 8, ptr %5) #3
  call void @llvm.lifetime.start.p0(i64 8, ptr %6) #3
  %10 = getelementptr inbounds nuw %"class.google::protobuf::strings::GrowingArrayByteSink", ptr %9, i32 0, i32 1
  %11 = load i64, ptr %10, align 8, !tbaa !42
  %12 = load i64, ptr %4, align 8, !tbaa !10
  %13 = add i64 %11, %12
  store i64 %13, ptr %6, align 8, !tbaa !10
  call void @llvm.lifetime.start.p0(i64 8, ptr %7) #3
  %14 = getelementptr inbounds nuw %"class.google::protobuf::strings::GrowingArrayByteSink", ptr %9, i32 0, i32 1
  %15 = load i64, ptr %14, align 8, !tbaa !42
  %16 = mul i64 3, %15
  %17 = udiv i64 %16, 2
  store i64 %17, ptr %7, align 8, !tbaa !10
  %18 = call noundef nonnull align 8 dereferenceable(8) ptr @_ZSt3maxImERKT_S2_S2_(ptr noundef nonnull align 8 dereferenceable(8) %6, ptr noundef nonnull align 8 dereferenceable(8) %7)
  %19 = load i64, ptr %18, align 8, !tbaa !10
  call void @llvm.lifetime.end.p0(i64 8, ptr %7) #3
  call void @llvm.lifetime.end.p0(i64 8, ptr %6) #3
  store i64 %19, ptr %5, align 8, !tbaa !10
  call void @llvm.lifetime.start.p0(i64 8, ptr %8) #3
  %20 = load i64, ptr %5, align 8, !tbaa !10
  %21 = call noalias noundef nonnull ptr @_Znam(i64 noundef %20) #14
  store ptr %21, ptr %8, align 8, !tbaa !26
  %22 = load ptr, ptr %8, align 8, !tbaa !26
  %23 = getelementptr inbounds nuw %"class.google::protobuf::strings::GrowingArrayByteSink", ptr %9, i32 0, i32 2
  %24 = load ptr, ptr %23, align 8, !tbaa !44
  %25 = getelementptr inbounds nuw %"class.google::protobuf::strings::GrowingArrayByteSink", ptr %9, i32 0, i32 3
  %26 = load i64, ptr %25, align 8, !tbaa !45
  call void @llvm.memcpy.p0.p0.i64(ptr align 1 %22, ptr align 1 %24, i64 %26, i1 false)
  %27 = getelementptr inbounds nuw %"class.google::protobuf::strings::GrowingArrayByteSink", ptr %9, i32 0, i32 2
  %28 = load ptr, ptr %27, align 8, !tbaa !44
  %29 = icmp eq ptr %28, null
  br i1 %29, label %31, label %30

30:                                               ; preds = %2
  call void @_ZdaPv(ptr noundef %28) #15
  br label %31

31:                                               ; preds = %30, %2
  %32 = load ptr, ptr %8, align 8, !tbaa !26
  %33 = getelementptr inbounds nuw %"class.google::protobuf::strings::GrowingArrayByteSink", ptr %9, i32 0, i32 2
  store ptr %32, ptr %33, align 8, !tbaa !44
  %34 = load i64, ptr %5, align 8, !tbaa !10
  %35 = getelementptr inbounds nuw %"class.google::protobuf::strings::GrowingArrayByteSink", ptr %9, i32 0, i32 1
  store i64 %34, ptr %35, align 8, !tbaa !42
  call void @llvm.lifetime.end.p0(i64 8, ptr %8) #3
  call void @llvm.lifetime.end.p0(i64 8, ptr %5) #3
  ret void
}