; Function Attrs: mustprogress uwtable
define hidden void @_ZN6google8protobuf7strings20GrowingArrayByteSink6ExpandEm(ptr noundef nonnull align 8 captures(none) dereferenceable(32) %0, i64 noundef %1) local_unnamed_addr #3 align 2 {
  %3 = getelementptr inbounds nuw i8, ptr %0, i64 8
  %4 = load i64, ptr %3, align 8, !tbaa !19
  %5 = add i64 %4, %1
  %6 = mul i64 %4, 3
  %7 = lshr i64 %6, 1
  %.sroa.speculated = tail call i64 @llvm.umax.i64(i64 %5, i64 %7)
  %8 = tail call noalias noundef nonnull ptr @_Znam(i64 noundef %.sroa.speculated) #21
  %9 = getelementptr inbounds nuw i8, ptr %0, i64 16
  %10 = load ptr, ptr %9, align 8, !tbaa !21
  %11 = getelementptr inbounds nuw i8, ptr %0, i64 24
  %12 = load i64, ptr %11, align 8, !tbaa !22
  tail call void @llvm.memcpy.p0.p0.i64(ptr nonnull align 1 %8, ptr align 1 %10, i64 %12, i1 false)
  %13 = icmp eq ptr %10, null
  br i1 %13, label %15, label %14

14:                                               ; preds = %2
  tail call void @_ZdaPv(ptr noundef nonnull %10) #22
  br label %15

15:                                               ; preds = %14, %2
  store ptr %8, ptr %9, align 8, !tbaa !21
  store i64 %.sroa.speculated, ptr %3, align 8, !tbaa !19
  ret void
}